; Function Attrs: nounwind uwtable
define range(i32 -2147483648, 1) i32 @fdt_del_node(ptr noundef %0, i32 noundef %1) local_unnamed_addr #0 {
  %3 = tail call i32 @fdt_ro_probe_(ptr noundef %0) #9
  %4 = icmp sgt i32 %3, -1
  br i1 %4, label %5, label %fdt_rw_probe_.exit.thread

5:                                                ; preds = %2
  %6 = getelementptr inbounds nuw i8, ptr %0, i64 20
  %7 = load i8, ptr %6, align 1, !tbaa !3
  %8 = zext i8 %7 to i32
  %9 = shl nuw i32 %8, 24
  %10 = getelementptr inbounds nuw i8, ptr %0, i64 21
  %11 = load i8, ptr %10, align 1, !tbaa !3
  %12 = zext i8 %11 to i32
  %13 = shl nuw nsw i32 %12, 16
  %14 = or disjoint i32 %13, %9
  %15 = getelementptr inbounds nuw i8, ptr %0, i64 22
  %16 = load i8, ptr %15, align 1, !tbaa !3
  %17 = zext i8 %16 to i32
  %18 = shl nuw nsw i32 %17, 8
  %19 = or disjoint i32 %14, %18
  %20 = getelementptr inbounds nuw i8, ptr %0, i64 23
  %21 = load i8, ptr %20, align 1, !tbaa !3
  %22 = zext i8 %21 to i32
  %23 = or disjoint i32 %19, %22
  %24 = icmp ult i32 %23, 17
  br i1 %24, label %fdt_rw_probe_.exit.thread, label %25

25:                                               ; preds = %5
  %26 = getelementptr inbounds nuw i8, ptr %0, i64 36
  %27 = load i8, ptr %26, align 1, !tbaa !3
  %28 = zext i8 %27 to i32
  %29 = shl nuw i32 %28, 24
  %30 = getelementptr inbounds nuw i8, ptr %0, i64 37
  %31 = load i8, ptr %30, align 1, !tbaa !3
  %32 = zext i8 %31 to i32
  %33 = shl nuw nsw i32 %32, 16
  %34 = or disjoint i32 %33, %29
  %35 = getelementptr inbounds nuw i8, ptr %0, i64 38
  %36 = load i8, ptr %35, align 1, !tbaa !3
  %37 = zext i8 %36 to i32
  %38 = shl nuw nsw i32 %37, 8
  %39 = or disjoint i32 %34, %38
  %40 = getelementptr inbounds nuw i8, ptr %0, i64 39
  %41 = load i8, ptr %40, align 1, !tbaa !3
  %42 = zext i8 %41 to i32
  %43 = or disjoint i32 %39, %42
  %44 = tail call fastcc i32 @fdt_blocks_misordered_(ptr noundef nonnull %0, i32 noundef 16, i32 noundef %43)
  %.not.i = icmp eq i32 %44, 0
  br i1 %.not.i, label %45, label %fdt_rw_probe_.exit.thread

45:                                               ; preds = %25
  %.not9.i = icmp eq i32 %23, 17
  br i1 %.not9.i, label %fdt_rw_probe_.exit, label %46

46:                                               ; preds = %45
  store i32 285212672, ptr %6, align 4, !tbaa !6
  br label %fdt_rw_probe_.exit

fdt_rw_probe_.exit:                               ; preds = %46, %45
  %47 = tail call i32 @fdt_node_end_offset_(ptr noundef nonnull %0, i32 noundef %1) #9
  %48 = icmp slt i32 %47, 0
  br i1 %48, label %fdt_rw_probe_.exit.thread, label %49

49:                                               ; preds = %fdt_rw_probe_.exit
  %50 = getelementptr inbounds nuw i8, ptr %0, i64 8
  %51 = load i8, ptr %50, align 1, !tbaa !3
  %52 = zext i8 %51 to i64
  %53 = shl nuw nsw i64 %52, 24
  %54 = getelementptr inbounds nuw i8, ptr %0, i64 9
  %55 = load i8, ptr %54, align 1, !tbaa !3
  %56 = zext i8 %55 to i64
  %57 = shl nuw nsw i64 %56, 16
  %58 = or disjoint i64 %57, %53
  %59 = getelementptr inbounds nuw i8, ptr %0, i64 10
  %60 = load i8, ptr %59, align 1, !tbaa !3
  %61 = zext i8 %60 to i64
  %62 = shl nuw nsw i64 %61, 8
  %63 = or disjoint i64 %58, %62
  %64 = getelementptr inbounds nuw i8, ptr %0, i64 11
  %65 = load i8, ptr %64, align 1, !tbaa !3
  %66 = zext i8 %65 to i64
  %67 = or disjoint i64 %63, %66
  %68 = getelementptr inbounds nuw i8, ptr %0, i64 %67
  %69 = sext i32 %1 to i64
  %70 = getelementptr inbounds i8, ptr %68, i64 %69
  %71 = sub nsw i32 %47, %1
  %72 = tail call fastcc i32 @fdt_splice_struct_(ptr noundef nonnull %0, ptr noundef nonnull %70, i32 noundef %71, i32 noundef 0)
  br label %fdt_rw_probe_.exit.thread

fdt_rw_probe_.exit.thread:                        ; preds = %25, %5, %2, %fdt_rw_probe_.exit, %49
  %.1 = phi i32 [ %72, %49 ], [ %47, %fdt_rw_probe_.exit ], [ -12, %25 ], [ -10, %5 ], [ %3, %2 ]
  ret i32 %.1
}